; Function Attrs: nounwind uwtable
define void @Ivy_ManSeqFindCut(ptr noundef readonly captures(none) %0, ptr noundef readonly captures(none) %1, ptr noundef captures(none) initializes((4, 8)) %2, ptr noundef captures(none) initializes((4, 8)) %3, i32 noundef %4) local_unnamed_addr #0 {
  %6 = getelementptr inbounds nuw i8, ptr %2, i64 4
  store i32 0, ptr %6, align 4
  %7 = getelementptr i8, ptr %1, i64 16
  %.val15 = load ptr, ptr %7, align 8
  %.not.i = icmp eq ptr %.val15, null
  br i1 %.not.i, label %Ivy_ObjFaninId0.exit, label %8

8:                                                ; preds = %5
  %9 = ptrtoint ptr %.val15 to i64
  %10 = and i64 %9, -2
  %11 = inttoptr i64 %10 to ptr
  %.val.i = load i32, ptr %11, align 8
  %12 = shl i32 %.val.i, 8
  br label %Ivy_ObjFaninId0.exit

Ivy_ObjFaninId0.exit:                             ; preds = %5, %8
  %13 = phi i32 [ %12, %8 ], [ 0, %5 ]
  %14 = load i32, ptr %2, align 8
  %15 = icmp eq i32 %14, 0
  %16 = getelementptr inbounds nuw i8, ptr %2, i64 8
  %17 = load ptr, ptr %16, align 8
  br i1 %15, label %18, label %Vec_IntPush.exit

18:                                               ; preds = %Ivy_ObjFaninId0.exit
  %.not9.i.i = icmp eq ptr %17, null
  br i1 %.not9.i.i, label %21, label %19

19:                                               ; preds = %18
  %20 = tail call dereferenceable_or_null(64) ptr @realloc(ptr noundef nonnull %17, i64 noundef 64) #19
  %.pre.pre = load i32, ptr %6, align 4
  br label %Vec_IntGrow.exit.i

21:                                               ; preds = %18
  %22 = tail call noalias dereferenceable_or_null(64) ptr @malloc(i64 noundef 64) #20
  br label %Vec_IntGrow.exit.i

Vec_IntGrow.exit.i:                               ; preds = %21, %19
  %.pre = phi i32 [ %.pre.pre, %19 ], [ 0, %21 ]
  %23 = phi ptr [ %20, %19 ], [ %22, %21 ]
  store ptr %23, ptr %16, align 8
  store i32 16, ptr %2, align 8
  br label %Vec_IntPush.exit

Vec_IntPush.exit:                                 ; preds = %Ivy_ObjFaninId0.exit, %Vec_IntGrow.exit.i
  %24 = phi i32 [ %.pre, %Vec_IntGrow.exit.i ], [ 0, %Ivy_ObjFaninId0.exit ]
  %25 = phi ptr [ %23, %Vec_IntGrow.exit.i ], [ %17, %Ivy_ObjFaninId0.exit ]
  %26 = add nsw i32 %24, 1
  store i32 %26, ptr %6, align 4
  %27 = sext i32 %24 to i64
  %28 = getelementptr inbounds i32, ptr %25, i64 %27
  store i32 %13, ptr %28, align 4
  %29 = getelementptr i8, ptr %1, i64 24
  %.val17 = load ptr, ptr %29, align 8
  %.not.i18 = icmp eq ptr %.val17, null
  br i1 %.not.i18, label %Ivy_ObjFaninId1.exit, label %30

30:                                               ; preds = %Vec_IntPush.exit
  %31 = ptrtoint ptr %.val17 to i64
  %32 = and i64 %31, -2
  %33 = inttoptr i64 %32 to ptr
  %.val.i19 = load i32, ptr %33, align 8
  %34 = shl i32 %.val.i19, 8
  br label %Ivy_ObjFaninId1.exit

Ivy_ObjFaninId1.exit:                             ; preds = %Vec_IntPush.exit, %30
  %35 = phi i32 [ %34, %30 ], [ 0, %Vec_IntPush.exit ]
  %36 = load i32, ptr %6, align 4
  %37 = load i32, ptr %2, align 8
  %38 = icmp eq i32 %36, %37
  br i1 %38, label %39, label %.Vec_IntGrow.exit10_crit_edge.i20

.Vec_IntGrow.exit10_crit_edge.i20:                ; preds = %Ivy_ObjFaninId1.exit
  %.phi.trans.insert.i21 = getelementptr inbounds nuw i8, ptr %2, i64 8
  %.pre.i22 = load ptr, ptr %.phi.trans.insert.i21, align 8
  br label %Vec_IntPush.exit26

39:                                               ; preds = %Ivy_ObjFaninId1.exit
  %40 = icmp slt i32 %36, 16
  br i1 %40, label %41, label %49

41:                                               ; preds = %39
  %42 = getelementptr inbounds nuw i8, ptr %2, i64 8
  %43 = load ptr, ptr %42, align 8
  %.not9.i.i24 = icmp eq ptr %43, null
  br i1 %.not9.i.i24, label %46, label %44

44:                                               ; preds = %41
  %45 = tail call dereferenceable_or_null(64) ptr @realloc(ptr noundef nonnull %43, i64 noundef 64) #19
  br label %Vec_IntGrow.exit.i25

46:                                               ; preds = %41
  %47 = tail call noalias dereferenceable_or_null(64) ptr @malloc(i64 noundef 64) #20
  br label %Vec_IntGrow.exit.i25

Vec_IntGrow.exit.i25:                             ; preds = %46, %44
  %48 = phi ptr [ %45, %44 ], [ %47, %46 ]
  store ptr %48, ptr %42, align 8
  store i32 16, ptr %2, align 8
  br label %Vec_IntPush.exit26

49:                                               ; preds = %39
  %50 = shl nuw nsw i32 %36, 1
  %51 = getelementptr inbounds nuw i8, ptr %2, i64 8
  %52 = load ptr, ptr %51, align 8
  %.not9.i9.i23 = icmp eq ptr %52, null
  %53 = zext nneg i32 %50 to i64
  %54 = shl nuw nsw i64 %53, 2
  br i1 %.not9.i9.i23, label %57, label %55

55:                                               ; preds = %49
  %56 = tail call ptr @realloc(ptr noundef nonnull %52, i64 noundef %54) #19
  br label %59

57:                                               ; preds = %49
  %58 = tail call noalias ptr @malloc(i64 noundef %54) #20
  br label %59

59:                                               ; preds = %57, %55
  %60 = phi ptr [ %56, %55 ], [ %58, %57 ]
  store ptr %60, ptr %51, align 8
  store i32 %50, ptr %2, align 8
  br label %Vec_IntPush.exit26

Vec_IntPush.exit26:                               ; preds = %.Vec_IntGrow.exit10_crit_edge.i20, %Vec_IntGrow.exit.i25, %59
  %61 = phi ptr [ %.pre.i22, %.Vec_IntGrow.exit10_crit_edge.i20 ], [ %60, %59 ], [ %48, %Vec_IntGrow.exit.i25 ]
  %62 = load i32, ptr %6, align 4
  %63 = add nsw i32 %62, 1
  store i32 %63, ptr %6, align 4
  %64 = sext i32 %62 to i64
  %65 = getelementptr inbounds i32, ptr %61, i64 %64
  store i32 %35, ptr %65, align 4
  %66 = getelementptr inbounds nuw i8, ptr %3, i64 4
  store i32 0, ptr %66, align 4
  %67 = load i32, ptr %1, align 8
  %68 = shl i32 %67, 8
  %69 = load i32, ptr %3, align 8
  %70 = icmp eq i32 %69, 0
  %71 = getelementptr inbounds nuw i8, ptr %3, i64 8
  %72 = load ptr, ptr %71, align 8
  br i1 %70, label %73, label %Vec_IntPush.exit33

73:                                               ; preds = %Vec_IntPush.exit26
  %.not9.i.i31 = icmp eq ptr %72, null
  br i1 %.not9.i.i31, label %76, label %74

74:                                               ; preds = %73
  %75 = tail call dereferenceable_or_null(64) ptr @realloc(ptr noundef nonnull %72, i64 noundef 64) #19
  %.pre54.pre = load i32, ptr %66, align 4
  br label %Vec_IntGrow.exit.i32

76:                                               ; preds = %73
  %77 = tail call noalias dereferenceable_or_null(64) ptr @malloc(i64 noundef 64) #20
  br label %Vec_IntGrow.exit.i32

Vec_IntGrow.exit.i32:                             ; preds = %76, %74
  %.pre54 = phi i32 [ %.pre54.pre, %74 ], [ 0, %76 ]
  %78 = phi ptr [ %75, %74 ], [ %77, %76 ]
  store ptr %78, ptr %71, align 8
  store i32 16, ptr %3, align 8
  br label %Vec_IntPush.exit33

Vec_IntPush.exit33:                               ; preds = %Vec_IntPush.exit26, %Vec_IntGrow.exit.i32
  %79 = phi i32 [ %.pre54, %Vec_IntGrow.exit.i32 ], [ 0, %Vec_IntPush.exit26 ]
  %80 = phi ptr [ %78, %Vec_IntGrow.exit.i32 ], [ %72, %Vec_IntPush.exit26 ]
  %81 = add nsw i32 %79, 1
  store i32 %81, ptr %66, align 4
  %82 = sext i32 %79 to i64
  %83 = getelementptr inbounds i32, ptr %80, i64 %82
  store i32 %68, ptr %83, align 4
  %.val = load ptr, ptr %7, align 8
  %.not.i34 = icmp eq ptr %.val, null
  br i1 %.not.i34, label %Ivy_ObjFaninId0.exit36, label %84

84:                                               ; preds = %Vec_IntPush.exit33
  %85 = ptrtoint ptr %.val to i64
  %86 = and i64 %85, -2
  %87 = inttoptr i64 %86 to ptr
  %.val.i35 = load i32, ptr %87, align 8
  %88 = shl i32 %.val.i35, 8
  br label %Ivy_ObjFaninId0.exit36

Ivy_ObjFaninId0.exit36:                           ; preds = %Vec_IntPush.exit33, %84
  %89 = phi i32 [ %88, %84 ], [ 0, %Vec_IntPush.exit33 ]
  %90 = load i32, ptr %66, align 4
  %91 = load i32, ptr %3, align 8
  %92 = icmp eq i32 %90, %91
  br i1 %92, label %93, label %.Vec_IntGrow.exit10_crit_edge.i37

.Vec_IntGrow.exit10_crit_edge.i37:                ; preds = %Ivy_ObjFaninId0.exit36
  %.phi.trans.insert.i38 = getelementptr inbounds nuw i8, ptr %3, i64 8
  %.pre.i39 = load ptr, ptr %.phi.trans.insert.i38, align 8
  br label %Vec_IntPush.exit43

93:                                               ; preds = %Ivy_ObjFaninId0.exit36
  %94 = icmp slt i32 %90, 16
  br i1 %94, label %95, label %103

95:                                               ; preds = %93
  %96 = getelementptr inbounds nuw i8, ptr %3, i64 8
  %97 = load ptr, ptr %96, align 8
  %.not9.i.i41 = icmp eq ptr %97, null
  br i1 %.not9.i.i41, label %100, label %98

98:                                               ; preds = %95
  %99 = tail call dereferenceable_or_null(64) ptr @realloc(ptr noundef nonnull %97, i64 noundef 64) #19
  br label %Vec_IntGrow.exit.i42

100:                                              ; preds = %95
  %101 = tail call noalias dereferenceable_or_null(64) ptr @malloc(i64 noundef 64) #20
  br label %Vec_IntGrow.exit.i42

Vec_IntGrow.exit.i42:                             ; preds = %100, %98
  %102 = phi ptr [ %99, %98 ], [ %101, %100 ]
  store ptr %102, ptr %96, align 8
  store i32 16, ptr %3, align 8
  br label %Vec_IntPush.exit43

103:                                              ; preds = %93
  %104 = shl nuw nsw i32 %90, 1
  %105 = getelementptr inbounds nuw i8, ptr %3, i64 8
  %106 = load ptr, ptr %105, align 8
  %.not9.i9.i40 = icmp eq ptr %106, null
  %107 = zext nneg i32 %104 to i64
  %108 = shl nuw nsw i64 %107, 2
  br i1 %.not9.i9.i40, label %111, label %109

109:                                              ; preds = %103
  %110 = tail call ptr @realloc(ptr noundef nonnull %106, i64 noundef %108) #19
  br label %113

111:                                              ; preds = %103
  %112 = tail call noalias ptr @malloc(i64 noundef %108) #20
  br label %113

113:                                              ; preds = %111, %109
  %114 = phi ptr [ %110, %109 ], [ %112, %111 ]
  store ptr %114, ptr %105, align 8
  store i32 %104, ptr %3, align 8
  br label %Vec_IntPush.exit43

Vec_IntPush.exit43:                               ; preds = %.Vec_IntGrow.exit10_crit_edge.i37, %Vec_IntGrow.exit.i42, %113
  %115 = phi ptr [ %.pre.i39, %.Vec_IntGrow.exit10_crit_edge.i37 ], [ %114, %113 ], [ %102, %Vec_IntGrow.exit.i42 ]
  %116 = load i32, ptr %66, align 4
  %117 = add nsw i32 %116, 1
  store i32 %117, ptr %66, align 4
  %118 = sext i32 %116 to i64
  %119 = getelementptr inbounds i32, ptr %115, i64 %118
  store i32 %89, ptr %119, align 4
  %.val16 = load ptr, ptr %29, align 8
  %.not.i44 = icmp eq ptr %.val16, null
  br i1 %.not.i44, label %Ivy_ObjFaninId1.exit46, label %120

120:                                              ; preds = %Vec_IntPush.exit43
  %121 = ptrtoint ptr %.val16 to i64
  %122 = and i64 %121, -2
  %123 = inttoptr i64 %122 to ptr
  %.val.i45 = load i32, ptr %123, align 8
  %124 = shl i32 %.val.i45, 8
  br label %Ivy_ObjFaninId1.exit46

Ivy_ObjFaninId1.exit46:                           ; preds = %Vec_IntPush.exit43, %120
  %125 = phi i32 [ %124, %120 ], [ 0, %Vec_IntPush.exit43 ]
  %126 = load i32, ptr %66, align 4
  %127 = load i32, ptr %3, align 8
  %128 = icmp eq i32 %126, %127
  br i1 %128, label %129, label %.Vec_IntGrow.exit10_crit_edge.i47

.Vec_IntGrow.exit10_crit_edge.i47:                ; preds = %Ivy_ObjFaninId1.exit46
  %.phi.trans.insert.i48 = getelementptr inbounds nuw i8, ptr %3, i64 8
  %.pre.i49 = load ptr, ptr %.phi.trans.insert.i48, align 8
  br label %Vec_IntPush.exit53

129:                                              ; preds = %Ivy_ObjFaninId1.exit46
  %130 = icmp slt i32 %126, 16
  br i1 %130, label %131, label %139

131:                                              ; preds = %129
  %132 = getelementptr inbounds nuw i8, ptr %3, i64 8
  %133 = load ptr, ptr %132, align 8
  %.not9.i.i51 = icmp eq ptr %133, null
  br i1 %.not9.i.i51, label %136, label %134

134:                                              ; preds = %131
  %135 = tail call dereferenceable_or_null(64) ptr @realloc(ptr noundef nonnull %133, i64 noundef 64) #19
  br label %Vec_IntGrow.exit.i52

136:                                              ; preds = %131
  %137 = tail call noalias dereferenceable_or_null(64) ptr @malloc(i64 noundef 64) #20
  br label %Vec_IntGrow.exit.i52

Vec_IntGrow.exit.i52:                             ; preds = %136, %134
  %138 = phi ptr [ %135, %134 ], [ %137, %136 ]
  store ptr %138, ptr %132, align 8
  store i32 16, ptr %3, align 8
  br label %Vec_IntPush.exit53

139:                                              ; preds = %129
  %140 = shl nuw nsw i32 %126, 1
  %141 = getelementptr inbounds nuw i8, ptr %3, i64 8
  %142 = load ptr, ptr %141, align 8
  %.not9.i9.i50 = icmp eq ptr %142, null
  %143 = zext nneg i32 %140 to i64
  %144 = shl nuw nsw i64 %143, 2
  br i1 %.not9.i9.i50, label %147, label %145

145:                                              ; preds = %139
  %146 = tail call ptr @realloc(ptr noundef nonnull %142, i64 noundef %144) #19
  br label %149

147:                                              ; preds = %139
  %148 = tail call noalias ptr @malloc(i64 noundef %144) #20
  br label %149

149:                                              ; preds = %147, %145
  %150 = phi ptr [ %146, %145 ], [ %148, %147 ]
  store ptr %150, ptr %141, align 8
  store i32 %140, ptr %3, align 8
  br label %Vec_IntPush.exit53

Vec_IntPush.exit53:                               ; preds = %.Vec_IntGrow.exit10_crit_edge.i47, %Vec_IntGrow.exit.i52, %149
  %151 = phi ptr [ %.pre.i49, %.Vec_IntGrow.exit10_crit_edge.i47 ], [ %150, %149 ], [ %138, %Vec_IntGrow.exit.i52 ]
  %152 = load i32, ptr %66, align 4
  %153 = add nsw i32 %152, 1
  store i32 %153, ptr %66, align 4
  %154 = sext i32 %152 to i64
  %155 = getelementptr inbounds i32, ptr %151, i64 %154
  store i32 %125, ptr %155, align 4
  br label %156

156:                                              ; preds = %156, %Vec_IntPush.exit53
  %157 = tail call i32 @Ivy_ManSeqFindCut_int(ptr noundef %0, ptr noundef nonnull %2, ptr noundef nonnull %3, i32 noundef %4)
  %.not = icmp eq i32 %157, 0
  br i1 %.not, label %158, label %156, !llvm.loop !9

158:                                              ; preds = %156
  ret void
}